; Function Attrs: nounwind uwtable
define ptr @l_Array_foldlMUnsafe_fold___at_Lean_Meta_LazyDiscrTree_createImportedDiscrTree___spec__2___rarg(ptr noundef readonly captures(none) %0, i64 noundef %1, i64 noundef %2, ptr noundef %3) local_unnamed_addr #1 {
  %.not29 = icmp eq i64 %1, %2
  br i1 %.not29, label %._crit_edge, label %.lr.ph

.lr.ph:                                           ; preds = %4
  %5 = getelementptr inbounds nuw i8, ptr %0, i64 24
  br label %6

6:                                                ; preds = %.lr.ph, %33
  %.01531 = phi i64 [ %1, %.lr.ph ], [ %35, %33 ]
  %.01730 = phi ptr [ %3, %.lr.ph ], [ %34, %33 ]
  %7 = getelementptr inbounds nuw [0 x ptr], ptr %5, i64 0, i64 %.01531
  %8 = load ptr, ptr %7, align 8, !tbaa !4
  %9 = ptrtoint ptr %8 to i64
  %10 = and i64 %9, 1
  %.not.i = icmp eq i64 %10, 0
  br i1 %.not.i, label %11, label %lean_array_uget.exit

11:                                               ; preds = %6
  %.val.i.i = load i32, ptr %8, align 4, !tbaa !8
  %12 = icmp sgt i32 %.val.i.i, 0
  br i1 %12, label %13, label %15, !prof !11

13:                                               ; preds = %11
  %14 = add nuw i32 %.val.i.i, 1
  store i32 %14, ptr %8, align 4, !tbaa !8
  br label %lean_array_uget.exit

15:                                               ; preds = %11
  %.not.i.i = icmp eq i32 %.val.i.i, 0
  br i1 %.not.i.i, label %lean_array_uget.exit, label %16

16:                                               ; preds = %15
  tail call void @lean_inc_ref_cold(ptr noundef nonnull %8) #6
  br label %lean_array_uget.exit

lean_array_uget.exit:                             ; preds = %6, %13, %15, %16
  %17 = tail call ptr @lean_task_get(ptr noundef %8) #6
  %18 = ptrtoint ptr %17 to i64
  %19 = and i64 %18, 1
  %.not.i19 = icmp eq i64 %19, 0
  br i1 %.not.i19, label %20, label %lean_inc.exit.i

20:                                               ; preds = %lean_array_uget.exit
  %.val.i.i21 = load i32, ptr %17, align 4, !tbaa !8
  %21 = icmp sgt i32 %.val.i.i21, 0
  br i1 %21, label %22, label %24, !prof !11

22:                                               ; preds = %20
  %23 = add nuw i32 %.val.i.i21, 1
  store i32 %23, ptr %17, align 4, !tbaa !8
  br label %lean_inc.exit.i

24:                                               ; preds = %20
  %.not.i4.i = icmp eq i32 %.val.i.i21, 0
  br i1 %.not.i4.i, label %lean_inc.exit.i, label %25

25:                                               ; preds = %24
  tail call void @lean_inc_ref_cold(ptr noundef nonnull %17) #6
  br label %lean_inc.exit.i

lean_inc.exit.i:                                  ; preds = %25, %24, %22, %lean_array_uget.exit
  br i1 %.not.i, label %26, label %33

26:                                               ; preds = %lean_inc.exit.i
  %27 = load i32, ptr %8, align 4, !tbaa !8
  %28 = icmp sgt i32 %27, 1
  br i1 %28, label %29, label %31, !prof !11

29:                                               ; preds = %26
  %30 = add nsw i32 %27, -1
  store i32 %30, ptr %8, align 4, !tbaa !8
  br label %33

31:                                               ; preds = %26
  %.not.i.i20 = icmp eq i32 %27, 0
  br i1 %.not.i.i20, label %33, label %32

32:                                               ; preds = %31
  tail call void @lean_dec_ref_cold(ptr noundef nonnull %8) #6
  br label %33

33:                                               ; preds = %32, %31, %29, %lean_inc.exit.i
  %34 = tail call ptr @l_Lean_Meta_LazyDiscrTree_InitResults_append___rarg(ptr noundef %.01730, ptr noundef %17)
  %35 = add i64 %.01531, 1
  %.not = icmp eq i64 %35, %2
  br i1 %.not, label %._crit_edge, label %6

._crit_edge:                                      ; preds = %33, %4
  %.017.lcssa = phi ptr [ %3, %4 ], [ %34, %33 ]
  ret ptr %.017.lcssa
}